target datalayout = "e-m:e-p270:32:32-p271:32:32-p272:64:64-i64:64-i128:128-f80:128-n8:16:32:64-S128"
target triple = "x86_64-pc-linux-gnu"

%struct.SDL_HIDAPI_Device = type { ptr, ptr, ptr, ptr, i16, i16, i16, ptr, %struct.SDL_GUID, i32, i32, i32, i32, i16, i16, i8, i32, i32, i32, ptr, ptr, ptr, ptr, %struct.SDL_AtomicInt, i32, ptr, i8, i8, i8, ptr, i32, ptr, ptr }
%struct.SDL_GUID = type { [16 x i8] }
%struct.SDL_AtomicInt = type { i32 }

; Function Attrs: nounwind uwtable
define internal zeroext i1 @IsDongle(i16 noundef zeroext %0) #0 {
  %2 = alloca i16, align 2
  store i16 %0, ptr %2, align 2
  %3 = load i16, ptr %2, align 2
  %4 = zext i16 %3 to i32
  %5 = icmp eq i32 %4, 4418
  ret i1 %5
}

; Function Attrs: nounwind uwtable
define internal zeroext i1 @HIDAPI_DriverSteam_IsSupportedDevice(ptr noundef %0, ptr noundef %1, i32 noundef %2, i16 noundef zeroext %3, i16 noundef zeroext %4, i16 noundef zeroext %5, i32 noundef %6, i32 noundef %7, i32 noundef %8, i32 noundef %9) #0 {
  %11 = alloca i1, align 1
  %12 = alloca ptr, align 8
  %13 = alloca ptr, align 8
  %14 = alloca i32, align 4
  %15 = alloca i16, align 2
  %16 = alloca i16, align 2
  %17 = alloca i16, align 2
  %18 = alloca i32, align 4
  %19 = alloca i32, align 4
  %20 = alloca i32, align 4
  %21 = alloca i32, align 4
  store ptr %0, ptr %12, align 8
  store ptr %1, ptr %13, align 8
  store i32 %2, ptr %14, align 4
  store i16 %3, ptr %15, align 2
  store i16 %4, ptr %16, align 2
  store i16 %5, ptr %17, align 2
  store i32 %6, ptr %18, align 4
  store i32 %7, ptr %19, align 4
  store i32 %8, ptr %20, align 4
  store i32 %9, ptr %21, align 4
  %22 = load i16, ptr %15, align 2
  %23 = load i16, ptr %16, align 2
  %24 = call zeroext i1 @SDL_IsJoystickSteamController(i16 noundef zeroext %22, i16 noundef zeroext %23)
  br i1 %24, label %26, label %25

25:                                               ; preds = %10
  store i1 false, ptr %11, align 1
  br label %49

26:                                               ; preds = %10
  %27 = load ptr, ptr %12, align 8
  %28 = getelementptr inbounds nuw %struct.SDL_HIDAPI_Device, ptr %27, i32 0, i32 15
  %29 = load i8, ptr %28, align 4, !range !3, !noundef !4
  %30 = trunc i8 %29 to i1
  br i1 %30, label %31, label %32

31:                                               ; preds = %26
  store i1 true, ptr %11, align 1
  br label %49

32:                                               ; preds = %26
  %33 = load i16, ptr %16, align 2
  %34 = call zeroext i1 @IsDongle(i16 noundef zeroext %33)
  br i1 %34, label %35, label %43

35:                                               ; preds = %32
  %36 = load i32, ptr %18, align 4
  %37 = icmp sge i32 %36, 1
  br i1 %37, label %38, label %42

38:                                               ; preds = %35
  %39 = load i32, ptr %18, align 4
  %40 = icmp sle i32 %39, 4
  br i1 %40, label %41, label %42

41:                                               ; preds = %38
  store i1 true, ptr %11, align 1
  br label %49

42:                                               ; preds = %38, %35
  br label %48

43:                                               ; preds = %32
  %44 = load i32, ptr %18, align 4
  %45 = icmp eq i32 %44, 2
  br i1 %45, label %46, label %47

46:                                               ; preds = %43
  store i1 true, ptr %11, align 1
  br label %49

47:                                               ; preds = %43
  br label %48

48:                                               ; preds = %47, %42
  store i1 false, ptr %11, align 1
  br label %49

49:                                               ; preds = %48, %46, %41, %31, %25
  %50 = load i1, ptr %11, align 1
  ret i1 %50
}