; Function Attrs: nounwind uwtable
define internal noundef zeroext i1 @HIDAPI_DriverSteam_IsSupportedDevice(ptr noundef readonly captures(none) %0, ptr readnone captures(none) %1, i32 %2, i16 noundef zeroext %3, i16 noundef zeroext %4, i16 zeroext %5, i32 noundef %6, i32 %7, i32 %8, i32 %9) #0 {
  %11 = tail call zeroext i1 @SDL_IsJoystickSteamController(i16 noundef zeroext %3, i16 noundef zeroext %4) #9
  br i1 %11, label %12, label %23

12:                                               ; preds = %10
  %13 = getelementptr inbounds nuw i8, ptr %0, i64 84
  %14 = load i8, ptr %13, align 4, !range !3, !noundef !4
  %15 = trunc nuw i8 %14 to i1
  br i1 %15, label %23, label %16

16:                                               ; preds = %12
  %17 = icmp eq i16 %4, 4418
  br i1 %17, label %18, label %20

18:                                               ; preds = %16
  %19 = add i32 %6, -1
  %or.cond = icmp ult i32 %19, 4
  br i1 %or.cond, label %23, label %22

20:                                               ; preds = %16
  %21 = icmp eq i32 %6, 2
  br i1 %21, label %23, label %22

22:                                               ; preds = %20, %18
  br label %23

23:                                               ; preds = %20, %18, %12, %10, %22
  %.0 = phi i1 [ false, %22 ], [ false, %10 ], [ true, %12 ], [ true, %18 ], [ true, %20 ]
  ret i1 %.0
}